target datalayout = "e-m:e-p270:32:32-p271:32:32-p272:64:64-i64:64-i128:128-f80:128-n8:16:32:64-S128"
target triple = "x86_64-pc-linux-gnu"

%struct.SDL_GUID = type { [16 x i8] }
%struct.SDL_VirtualJoystickDesc = type { i32, i16, i16, i16, i16, i16, i16, i16, i16, i16, i16, [2 x i16], i32, i32, ptr, ptr, ptr, ptr, ptr, ptr, ptr, ptr, ptr, ptr, ptr, ptr }
%struct.joystick_hwdata = type { i32, i8, ptr, i32, %struct.SDL_GUID, %struct.SDL_VirtualJoystickDesc, i32, ptr, ptr, ptr, ptr, ptr, ptr, i8, i32, i32, ptr, ptr, ptr }
%struct.SDL_Joystick = type { i32, ptr, ptr, ptr, %struct.SDL_GUID, i16, i64, i8, i8, i32, ptr, i32, ptr, i32, ptr, i32, ptr, i32, ptr, i32, i32, ptr, i16, i16, i64, i64, i16, i16, i64, i64, i8, i8, i8, i64, i8, i32, i32, i32, i8, i32, ptr, i32, ptr, [3 x [3 x float]], i64, ptr, ptr, i32, i32, ptr }

@.str.27 = private unnamed_addr constant [32 x i8] c"That operation is not supported\00", align 1
@.str.29 = private unnamed_addr constant [35 x i8] c"SetLED failed, device disconnected\00", align 1

; Function Attrs: nounwind uwtable
define internal zeroext i1 @VIRTUAL_JoystickSetLED(ptr noundef %0, i8 noundef zeroext %1, i8 noundef zeroext %2, i8 noundef zeroext %3) #0 {
  %5 = alloca ptr, align 8
  %6 = alloca i8, align 1
  %7 = alloca i8, align 1
  %8 = alloca i8, align 1
  %9 = alloca i8, align 1
  %10 = alloca ptr, align 8
  store ptr %0, ptr %5, align 8
  store i8 %1, ptr %6, align 1
  store i8 %2, ptr %7, align 1
  store i8 %3, ptr %8, align 1
  call void @llvm.lifetime.start.p0(i64 1, ptr %9) #7
  call void @SDL_AssertJoysticksLocked()
  %11 = load ptr, ptr %5, align 8
  %12 = getelementptr inbounds nuw %struct.SDL_Joystick, ptr %11, i32 0, i32 46
  %13 = load ptr, ptr %12, align 8
  %14 = icmp ne ptr %13, null
  br i1 %14, label %15, label %42

15:                                               ; preds = %4
  call void @llvm.lifetime.start.p0(i64 8, ptr %10) #7
  %16 = load ptr, ptr %5, align 8
  %17 = getelementptr inbounds nuw %struct.SDL_Joystick, ptr %16, i32 0, i32 46
  %18 = load ptr, ptr %17, align 8
  store ptr %18, ptr %10, align 8
  %19 = load ptr, ptr %10, align 8
  %20 = getelementptr inbounds nuw %struct.joystick_hwdata, ptr %19, i32 0, i32 5
  %21 = getelementptr inbounds nuw %struct.SDL_VirtualJoystickDesc, ptr %20, i32 0, i32 22
  %22 = load ptr, ptr %21, align 8
  %23 = icmp ne ptr %22, null
  br i1 %23, label %24, label %38

24:                                               ; preds = %15
  %25 = load ptr, ptr %10, align 8
  %26 = getelementptr inbounds nuw %struct.joystick_hwdata, ptr %25, i32 0, i32 5
  %27 = getelementptr inbounds nuw %struct.SDL_VirtualJoystickDesc, ptr %26, i32 0, i32 22
  %28 = load ptr, ptr %27, align 8
  %29 = load ptr, ptr %10, align 8
  %30 = getelementptr inbounds nuw %struct.joystick_hwdata, ptr %29, i32 0, i32 5
  %31 = getelementptr inbounds nuw %struct.SDL_VirtualJoystickDesc, ptr %30, i32 0, i32 17
  %32 = load ptr, ptr %31, align 8
  %33 = load i8, ptr %6, align 1
  %34 = load i8, ptr %7, align 1
  %35 = load i8, ptr %8, align 1
  %36 = call zeroext i1 %28(ptr noundef %32, i8 noundef zeroext %33, i8 noundef zeroext %34, i8 noundef zeroext %35)
  %37 = zext i1 %36 to i8
  store i8 %37, ptr %9, align 1
  br label %41

38:                                               ; preds = %15
  %39 = call zeroext i1 (ptr, ...) @SDL_SetError_REAL(ptr noundef @.str.27)
  %40 = zext i1 %39 to i8
  store i8 %40, ptr %9, align 1
  br label %41

41:                                               ; preds = %38, %24
  call void @llvm.lifetime.end.p0(i64 8, ptr %10) #7
  br label %45

42:                                               ; preds = %4
  %43 = call zeroext i1 (ptr, ...) @SDL_SetError_REAL(ptr noundef @.str.29)
  %44 = zext i1 %43 to i8
  store i8 %44, ptr %9, align 1
  br label %45

45:                                               ; preds = %42, %41
  %46 = load i8, ptr %9, align 1, !range !12, !noundef !13
  %47 = trunc i8 %46 to i1
  call void @llvm.lifetime.end.p0(i64 1, ptr %9) #7
  ret i1 %47
}