; Function Attrs: nounwind uwtable
define internal zeroext i1 @VIRTUAL_JoystickSetLED(ptr noundef readonly captures(none) %0, i8 noundef zeroext %1, i8 noundef zeroext %2, i8 noundef zeroext %3) #0 {
  tail call void @SDL_AssertJoysticksLocked() #8
  %5 = getelementptr inbounds nuw i8, ptr %0, i64 328
  %6 = load ptr, ptr %5, align 8
  %.not = icmp eq ptr %6, null
  br i1 %.not, label %16, label %7

7:                                                ; preds = %4
  %8 = getelementptr inbounds nuw i8, ptr %6, i64 144
  %9 = load ptr, ptr %8, align 8
  %.not10 = icmp eq ptr %9, null
  br i1 %.not10, label %14, label %10

10:                                               ; preds = %7
  %11 = getelementptr inbounds nuw i8, ptr %6, i64 104
  %12 = load ptr, ptr %11, align 8
  %13 = tail call zeroext i1 %9(ptr noundef %12, i8 noundef zeroext %1, i8 noundef zeroext %2, i8 noundef zeroext %3) #8
  br label %18

14:                                               ; preds = %7
  %15 = tail call zeroext i1 (ptr, ...) @SDL_SetError_REAL(ptr noundef nonnull @.str.27) #8
  br label %18

16:                                               ; preds = %4
  %17 = tail call zeroext i1 (ptr, ...) @SDL_SetError_REAL(ptr noundef nonnull @.str.29) #8
  br label %18

18:                                               ; preds = %10, %14, %16
  %.1.in = phi i1 [ %17, %16 ], [ %13, %10 ], [ %15, %14 ]
  ret i1 %.1.in
}